; ModuleID = '32/1985.c'
source_filename = "32/1985.c"
target datalayout = "e-m:e-p270:32:32-p271:32:32-p272:64:64-i64:64-f80:128-n8:16:32:64-S128"
target triple = "x86_64-pc-linux-gnu"

@.str = private unnamed_addr constant [3 x i8] c"%d\00", align 1
@.str.1 = private unnamed_addr constant [2 x i8] c"\0A\00", align 1
@.str.2 = private unnamed_addr constant [3 x i8] c"%c\00", align 1

; Function Attrs: noinline nounwind uwtable
define dso_local void @main() #0 {
  %1 = alloca [100 x i8], align 16
  %2 = alloca [100 x i8], align 16
  %3 = alloca i8, align 1
  %4 = alloca i32, align 4
  %5 = alloca i32, align 4
  %6 = alloca i32, align 4
  %7 = alloca i32, align 4
  %8 = alloca i32, align 4
  %9 = alloca i32, align 4
  %10 = alloca i32, align 4
  %11 = call i32 (i8*, ...) @__isoc99_scanf(i8* getelementptr inbounds ([3 x i8], [3 x i8]* @.str, i64 0, i64 0), i32* %4)
  store i32 1, i32* %7, align 4
  br label %12

12:                                               ; preds = %165, %0
  %13 = load i32, i32* %7, align 4
  %14 = load i32, i32* %4, align 4
  %15 = icmp sle i32 %13, %14
  br i1 %15, label %16, label %168

16:                                               ; preds = %12
  %17 = call i32 (i8*, ...) @__isoc99_scanf(i8* getelementptr inbounds ([2 x i8], [2 x i8]* @.str.1, i64 0, i64 0))
  store i32 0, i32* %8, align 4
  br label %18

18:                                               ; preds = %28, %16
  %19 = call i32 @getchar()
  %20 = trunc i32 %19 to i8
  store i8 %20, i8* %3, align 1
  %21 = sext i8 %20 to i32
  %22 = icmp ne i32 %21, 10
  br i1 %22, label %23, label %31

23:                                               ; preds = %18
  %24 = load i8, i8* %3, align 1
  %25 = load i32, i32* %8, align 4
  %26 = sext i32 %25 to i64
  %27 = getelementptr inbounds [100 x i8], [100 x i8]* %1, i64 0, i64 %26
  store i8 %24, i8* %27, align 1
  br label %28

28:                                               ; preds = %23
  %29 = load i32, i32* %8, align 4
  %30 = add nsw i32 %29, 1
  store i32 %30, i32* %8, align 4
  br label %18

31:                                               ; preds = %18
  %32 = load i32, i32* %8, align 4
  %33 = add nsw i32 %32, -1
  store i32 %33, i32* %8, align 4
  store i32 0, i32* %5, align 4
  br label %34

34:                                               ; preds = %44, %31
  %35 = call i32 @getchar()
  %36 = trunc i32 %35 to i8
  store i8 %36, i8* %3, align 1
  %37 = sext i8 %36 to i32
  %38 = icmp ne i32 %37, 10
  br i1 %38, label %39, label %47

39:                                               ; preds = %34
  %40 = load i8, i8* %3, align 1
  %41 = load i32, i32* %5, align 4
  %42 = sext i32 %41 to i64
  %43 = getelementptr inbounds [100 x i8], [100 x i8]* %2, i64 0, i64 %42
  store i8 %40, i8* %43, align 1
  br label %44

44:                                               ; preds = %39
  %45 = load i32, i32* %5, align 4
  %46 = add nsw i32 %45, 1
  store i32 %46, i32* %5, align 4
  br label %34

47:                                               ; preds = %34
  %48 = load i32, i32* %5, align 4
  %49 = add nsw i32 %48, -1
  store i32 %49, i32* %5, align 4
  %50 = load i32, i32* %8, align 4
  store i32 %50, i32* %6, align 4
  br label %51

51:                                               ; preds = %77, %47
  %52 = load i32, i32* %6, align 4
  %53 = icmp sge i32 %52, 0
  br i1 %53, label %54, label %80

54:                                               ; preds = %51
  %55 = load i32, i32* %6, align 4
  %56 = load i32, i32* %8, align 4
  %57 = load i32, i32* %5, align 4
  %58 = sub nsw i32 %56, %57
  %59 = icmp sge i32 %55, %58
  br i1 %59, label %60, label %72

60:                                               ; preds = %54
  %61 = load i32, i32* %6, align 4
  %62 = load i32, i32* %8, align 4
  %63 = sub nsw i32 %61, %62
  %64 = load i32, i32* %5, align 4
  %65 = add nsw i32 %63, %64
  %66 = sext i32 %65 to i64
  %67 = getelementptr inbounds [100 x i8], [100 x i8]* %2, i64 0, i64 %66
  %68 = load i8, i8* %67, align 1
  %69 = load i32, i32* %6, align 4
  %70 = sext i32 %69 to i64
  %71 = getelementptr inbounds [100 x i8], [100 x i8]* %2, i64 0, i64 %70
  store i8 %68, i8* %71, align 1
  br label %76

72:                                               ; preds = %54
  %73 = load i32, i32* %6, align 4
  %74 = sext i32 %73 to i64
  %75 = getelementptr inbounds [100 x i8], [100 x i8]* %2, i64 0, i64 %74
  store i8 48, i8* %75, align 1
  br label %76

76:                                               ; preds = %72, %60
  br label %77

77:                                               ; preds = %76
  %78 = load i32, i32* %6, align 4
  %79 = add nsw i32 %78, -1
  store i32 %79, i32* %6, align 4
  br label %51

80:                                               ; preds = %51
  %81 = load i32, i32* %8, align 4
  store i32 %81, i32* %9, align 4
  br label %82

82:                                               ; preds = %145, %80
  %83 = load i32, i32* %9, align 4
  %84 = icmp sge i32 %83, 0
  br i1 %84, label %85, label %148

85:                                               ; preds = %82
  %86 = load i32, i32* %9, align 4
  %87 = sext i32 %86 to i64
  %88 = getelementptr inbounds [100 x i8], [100 x i8]* %2, i64 0, i64 %87
  %89 = load i8, i8* %88, align 1
  %90 = sext i8 %89 to i32
  %91 = load i32, i32* %9, align 4
  %92 = sext i32 %91 to i64
  %93 = getelementptr inbounds [100 x i8], [100 x i8]* %1, i64 0, i64 %92
  %94 = load i8, i8* %93, align 1
  %95 = sext i8 %94 to i32
  %96 = icmp sgt i32 %90, %95
  br i1 %96, label %97, label %127

97:                                               ; preds = %85
  %98 = load i32, i32* %9, align 4
  %99 = sext i32 %98 to i64
  %100 = getelementptr inbounds [100 x i8], [100 x i8]* %1, i64 0, i64 %99
  %101 = load i8, i8* %100, align 1
  %102 = sext i8 %101 to i32
  %103 = add nsw i32 %102, 10
  %104 = load i32, i32* %9, align 4
  %105 = sext i32 %104 to i64
  %106 = getelementptr inbounds [100 x i8], [100 x i8]* %2, i64 0, i64 %105
  %107 = load i8, i8* %106, align 1
  %108 = sext i8 %107 to i32
  %109 = sub nsw i32 %103, %108
  %110 = add nsw i32 %109, 48
  %111 = trunc i32 %110 to i8
  %112 = load i32, i32* %9, align 4
  %113 = sext i32 %112 to i64
  %114 = getelementptr inbounds [100 x i8], [100 x i8]* %2, i64 0, i64 %113
  store i8 %111, i8* %114, align 1
  %115 = load i32, i32* %9, align 4
  %116 = sub nsw i32 %115, 1
  %117 = sext i32 %116 to i64
  %118 = getelementptr inbounds [100 x i8], [100 x i8]* %1, i64 0, i64 %117
  %119 = load i8, i8* %118, align 1
  %120 = sext i8 %119 to i32
  %121 = sub nsw i32 %120, 1
  %122 = trunc i32 %121 to i8
  %123 = load i32, i32* %9, align 4
  %124 = sub nsw i32 %123, 1
  %125 = sext i32 %124 to i64
  %126 = getelementptr inbounds [100 x i8], [100 x i8]* %1, i64 0, i64 %125
  store i8 %122, i8* %126, align 1
  br label %144

127:                                              ; preds = %85
  %128 = load i32, i32* %9, align 4
  %129 = sext i32 %128 to i64
  %130 = getelementptr inbounds [100 x i8], [100 x i8]* %1, i64 0, i64 %129
  %131 = load i8, i8* %130, align 1
  %132 = sext i8 %131 to i32
  %133 = load i32, i32* %9, align 4
  %134 = sext i32 %133 to i64
  %135 = getelementptr inbounds [100 x i8], [100 x i8]* %2, i64 0, i64 %134
  %136 = load i8, i8* %135, align 1
  %137 = sext i8 %136 to i32
  %138 = sub nsw i32 %132, %137
  %139 = add nsw i32 %138, 48
  %140 = trunc i32 %139 to i8
  %141 = load i32, i32* %9, align 4
  %142 = sext i32 %141 to i64
  %143 = getelementptr inbounds [100 x i8], [100 x i8]* %2, i64 0, i64 %142
  store i8 %140, i8* %143, align 1
  br label %144

144:                                              ; preds = %127, %97
  br label %145

145:                                              ; preds = %144
  %146 = load i32, i32* %9, align 4
  %147 = add nsw i32 %146, -1
  store i32 %147, i32* %9, align 4
  br label %82

148:                                              ; preds = %82
  store i32 0, i32* %10, align 4
  br label %149

149:                                              ; preds = %160, %148
  %150 = load i32, i32* %10, align 4
  %151 = load i32, i32* %8, align 4
  %152 = icmp sle i32 %150, %151
  br i1 %152, label %153, label %163

153:                                              ; preds = %149
  %154 = load i32, i32* %10, align 4
  %155 = sext i32 %154 to i64
  %156 = getelementptr inbounds [100 x i8], [100 x i8]* %2, i64 0, i64 %155
  %157 = load i8, i8* %156, align 1
  %158 = sext i8 %157 to i32
  %159 = call i32 (i8*, ...) @printf(i8* getelementptr inbounds ([3 x i8], [3 x i8]* @.str.2, i64 0, i64 0), i32 %158)
  br label %160

160:                                              ; preds = %153
  %161 = load i32, i32* %10, align 4
  %162 = add nsw i32 %161, 1
  store i32 %162, i32* %10, align 4
  br label %149

163:                                              ; preds = %149
  %164 = call i32 (i8*, ...) @printf(i8* getelementptr inbounds ([2 x i8], [2 x i8]* @.str.1, i64 0, i64 0))
  br label %165

165:                                              ; preds = %163
  %166 = load i32, i32* %7, align 4
  %167 = add nsw i32 %166, 1
  store i32 %167, i32* %7, align 4
  br label %12

168:                                              ; preds = %12
  ret void
}

declare dso_local i32 @__isoc99_scanf(i8*, ...) #1

declare dso_local i32 @getchar() #1

declare dso_local i32 @printf(i8*, ...) #1


!llvm.module.flags = !{!0}
!llvm.ident = !{!1}

!0 = !{i32 1, !"wchar_size", i32 4}
!1 = !{!"clang version 10.0.0-4ubuntu1 "}
